target datalayout = "e-m:e-p270:32:32-p271:32:32-p272:64:64-i64:64-i128:128-f80:128-n8:16:32:64-S128"
target triple = "x86_64-pc-linux-gnu"

%struct._zend_gc_globals = type { ptr, i8, i8, i8, i8, i32, i32, i32, i32, i32, i32, i32, i64, i64, i64, i64 }
%struct._zend_refcounted_h = type { i32, %union.anon }
%union.anon = type { i32 }
%struct._gc_root_buffer = type { ptr }
%struct._zend_refcounted = type { %struct._zend_refcounted_h }

@gc_globals = internal global %struct._zend_gc_globals zeroinitializer, align 8

; Function Attrs: nounwind uwtable
define internal void @gc_remove_compressed(ptr noundef %0, i32 noundef %1) #0 {
  %3 = alloca ptr, align 8
  %4 = alloca ptr, align 8
  %5 = alloca i32, align 4
  %6 = alloca ptr, align 8
  %7 = alloca ptr, align 8
  %8 = alloca ptr, align 8
  %9 = alloca ptr, align 8
  %10 = alloca i32, align 4
  %11 = alloca ptr, align 8
  store ptr %0, ptr %9, align 8
  store i32 %1, ptr %10, align 4
  %12 = load ptr, ptr %9, align 8
  %13 = load i32, ptr %10, align 4
  store ptr %12, ptr %4, align 8
  store i32 %13, ptr %5, align 4
  %14 = load ptr, ptr @gc_globals, align 8
  %15 = load i32, ptr %5, align 4
  %16 = zext i32 %15 to i64
  %17 = getelementptr inbounds %struct._gc_root_buffer, ptr %14, i64 %16
  store ptr %17, ptr %6, align 8
  %18 = load ptr, ptr %6, align 8
  %19 = load ptr, ptr %18, align 8
  %20 = ptrtoint ptr %19 to i64
  %21 = and i64 %20, -4
  %22 = inttoptr i64 %21 to ptr
  %23 = load ptr, ptr %4, align 8
  %24 = icmp eq ptr %22, %23
  br i1 %24, label %25, label %27

25:                                               ; preds = %2
  %26 = load ptr, ptr %6, align 8
  store ptr %26, ptr %3, align 8
  br label %48

27:                                               ; preds = %2
  br label %28

28:                                               ; preds = %47, %27
  %29 = load i32, ptr %5, align 4
  %30 = add i32 %29, 524288
  store i32 %30, ptr %5, align 4
  %31 = load i32, ptr %5, align 4
  %32 = load i32, ptr getelementptr inbounds (%struct._zend_gc_globals, ptr @gc_globals, i32 0, i32 6), align 8
  %33 = icmp ult i32 %31, %32
  call void @llvm.assume(i1 %33)
  %34 = load ptr, ptr @gc_globals, align 8
  %35 = load i32, ptr %5, align 4
  %36 = zext i32 %35 to i64
  %37 = getelementptr inbounds %struct._gc_root_buffer, ptr %34, i64 %36
  store ptr %37, ptr %6, align 8
  %38 = load ptr, ptr %6, align 8
  %39 = load ptr, ptr %38, align 8
  %40 = ptrtoint ptr %39 to i64
  %41 = and i64 %40, -4
  %42 = inttoptr i64 %41 to ptr
  %43 = load ptr, ptr %4, align 8
  %44 = icmp eq ptr %42, %43
  br i1 %44, label %45, label %47

45:                                               ; preds = %28
  %46 = load ptr, ptr %6, align 8
  store ptr %46, ptr %3, align 8
  br label %48

47:                                               ; preds = %28
  br label %28

48:                                               ; preds = %45, %25
  %49 = load ptr, ptr %3, align 8
  store ptr %49, ptr %11, align 8
  %50 = load ptr, ptr %11, align 8
  store ptr %50, ptr %8, align 8
  %51 = load ptr, ptr %8, align 8
  store ptr %51, ptr %7, align 8
  %52 = load i32, ptr getelementptr inbounds (%struct._zend_gc_globals, ptr @gc_globals, i32 0, i32 5), align 4
  %53 = zext i32 %52 to i64
  %54 = mul i64 %53, 8
  %55 = or i64 %54, 1
  %56 = inttoptr i64 %55 to ptr
  %57 = load ptr, ptr %7, align 8
  store ptr %56, ptr %57, align 8
  %58 = load ptr, ptr %7, align 8
  %59 = load ptr, ptr @gc_globals, align 8
  %60 = ptrtoint ptr %58 to i64
  %61 = ptrtoint ptr %59 to i64
  %62 = sub i64 %60, %61
  %63 = sdiv exact i64 %62, 8
  %64 = trunc i64 %63 to i32
  store i32 %64, ptr getelementptr inbounds (%struct._zend_gc_globals, ptr @gc_globals, i32 0, i32 5), align 4
  %65 = load i32, ptr getelementptr inbounds (%struct._zend_gc_globals, ptr @gc_globals, i32 0, i32 9), align 4
  %66 = add i32 %65, -1
  store i32 %66, ptr getelementptr inbounds (%struct._zend_gc_globals, ptr @gc_globals, i32 0, i32 9), align 4
  ret void
}

; Function Attrs: nounwind uwtable
define void @gc_remove_from_buffer(ptr noundef %0) #0 {
  %2 = alloca ptr, align 8
  %3 = alloca ptr, align 8
  %4 = alloca ptr, align 8
  %5 = alloca ptr, align 8
  %6 = alloca i32, align 4
  store ptr %0, ptr %4, align 8
  %7 = load ptr, ptr %4, align 8
  %8 = getelementptr inbounds %struct._zend_refcounted, ptr %7, i32 0, i32 0
  %9 = getelementptr inbounds %struct._zend_refcounted_h, ptr %8, i32 0, i32 1
  %10 = load i32, ptr %9, align 4
  %11 = and i32 %10, 1073740800
  %12 = lshr i32 %11, 10
  store i32 %12, ptr %6, align 4
  %13 = load ptr, ptr %4, align 8
  %14 = getelementptr inbounds %struct._zend_refcounted, ptr %13, i32 0, i32 0
  %15 = getelementptr inbounds %struct._zend_refcounted_h, ptr %14, i32 0, i32 1
  %16 = load i32, ptr %15, align 4
  %17 = and i32 %16, -1073741824
  %18 = icmp eq i32 %17, 0
  br i1 %18, label %20, label %19

19:                                               ; preds = %1
  br label %20

20:                                               ; preds = %19, %1
  br label %21

21:                                               ; preds = %20
  %22 = load ptr, ptr %4, align 8
  %23 = getelementptr inbounds %struct._zend_refcounted, ptr %22, i32 0, i32 0
  %24 = getelementptr inbounds %struct._zend_refcounted_h, ptr %23, i32 0, i32 1
  %25 = load i32, ptr %24, align 4
  %26 = and i32 %25, 1023
  %27 = or i32 %26, 0
  %28 = load ptr, ptr %4, align 8
  %29 = getelementptr inbounds %struct._zend_refcounted, ptr %28, i32 0, i32 0
  %30 = getelementptr inbounds %struct._zend_refcounted_h, ptr %29, i32 0, i32 1
  store i32 %27, ptr %30, align 4
  br label %31

31:                                               ; preds = %21
  %32 = load i32, ptr getelementptr inbounds (%struct._zend_gc_globals, ptr @gc_globals, i32 0, i32 6), align 8
  %33 = icmp uge i32 %32, 524288
  %34 = xor i1 %33, true
  %35 = xor i1 %34, true
  %36 = zext i1 %35 to i32
  %37 = sext i32 %36 to i64
  %38 = icmp ne i64 %37, 0
  br i1 %38, label %39, label %42

39:                                               ; preds = %31
  %40 = load ptr, ptr %4, align 8
  %41 = load i32, ptr %6, align 4
  call void @gc_remove_compressed(ptr noundef %40, i32 noundef %41)
  br label %66

42:                                               ; preds = %31
  %43 = load i32, ptr %6, align 4
  %44 = icmp ne i32 %43, 0
  call void @llvm.assume(i1 %44)
  %45 = load ptr, ptr @gc_globals, align 8
  %46 = load i32, ptr %6, align 4
  %47 = zext i32 %46 to i64
  %48 = getelementptr inbounds %struct._gc_root_buffer, ptr %45, i64 %47
  store ptr %48, ptr %5, align 8
  %49 = load ptr, ptr %5, align 8
  store ptr %49, ptr %3, align 8
  %50 = load ptr, ptr %3, align 8
  store ptr %50, ptr %2, align 8
  %51 = load i32, ptr getelementptr inbounds (%struct._zend_gc_globals, ptr @gc_globals, i32 0, i32 5), align 4
  %52 = zext i32 %51 to i64
  %53 = mul i64 %52, 8
  %54 = or i64 %53, 1
  %55 = inttoptr i64 %54 to ptr
  %56 = load ptr, ptr %2, align 8
  store ptr %55, ptr %56, align 8
  %57 = load ptr, ptr %2, align 8
  %58 = load ptr, ptr @gc_globals, align 8
  %59 = ptrtoint ptr %57 to i64
  %60 = ptrtoint ptr %58 to i64
  %61 = sub i64 %59, %60
  %62 = sdiv exact i64 %61, 8
  %63 = trunc i64 %62 to i32
  store i32 %63, ptr getelementptr inbounds (%struct._zend_gc_globals, ptr @gc_globals, i32 0, i32 5), align 4
  %64 = load i32, ptr getelementptr inbounds (%struct._zend_gc_globals, ptr @gc_globals, i32 0, i32 9), align 4
  %65 = add i32 %64, -1
  store i32 %65, ptr getelementptr inbounds (%struct._zend_gc_globals, ptr @gc_globals, i32 0, i32 9), align 4
  br label %66

66:                                               ; preds = %42, %39
  ret void
}