; Function Attrs: nofree norecurse nosync nounwind memory(readwrite, inaccessiblemem: write) uwtable
define void @gc_remove_from_buffer(ptr noundef %0) local_unnamed_addr #6 {
  %2 = getelementptr inbounds i8, ptr %0, i64 4
  %3 = load i32, ptr %2, align 4
  %4 = lshr i32 %3, 10
  %5 = and i32 %4, 1048575
  %6 = and i32 %3, 1023
  store i32 %6, ptr %2, align 4
  %7 = load i32, ptr getelementptr inbounds (%struct._zend_gc_globals, ptr @gc_globals, i64 0, i32 6), align 8
  %8 = icmp ugt i32 %7, 524287
  br i1 %8, label %9, label %28

9:                                                ; preds = %1
  %10 = load ptr, ptr @gc_globals, align 8
  %11 = zext nneg i32 %5 to i64
  %12 = getelementptr inbounds %struct._gc_root_buffer, ptr %10, i64 %11
  %13 = load ptr, ptr %12, align 8
  %14 = ptrtoint ptr %13 to i64
  %15 = and i64 %14, -4
  %16 = inttoptr i64 %15 to ptr
  %17 = icmp eq ptr %16, %0
  br i1 %17, label %gc_remove_compressed.exit, label %.preheader.i

.preheader.i:                                     ; preds = %9, %.preheader.i
  %.016.i = phi i32 [ %18, %.preheader.i ], [ %5, %9 ]
  %18 = add i32 %.016.i, 524288
  %19 = icmp ult i32 %18, %7
  tail call void @llvm.assume(i1 %19)
  %20 = zext i32 %18 to i64
  %21 = getelementptr inbounds %struct._gc_root_buffer, ptr %10, i64 %20
  %22 = load ptr, ptr %21, align 8
  %23 = ptrtoint ptr %22 to i64
  %24 = and i64 %23, -4
  %25 = inttoptr i64 %24 to ptr
  %26 = icmp eq ptr %25, %0
  br i1 %26, label %gc_remove_compressed.exit.loopexit, label %.preheader.i

gc_remove_compressed.exit.loopexit:               ; preds = %.preheader.i
  %27 = getelementptr inbounds %struct._gc_root_buffer, ptr %10, i64 %20
  br label %gc_remove_compressed.exit

28:                                               ; preds = %1
  %29 = icmp ne i32 %5, 0
  tail call void @llvm.assume(i1 %29)
  %30 = load ptr, ptr @gc_globals, align 8
  %31 = zext nneg i32 %5 to i64
  %32 = getelementptr inbounds %struct._gc_root_buffer, ptr %30, i64 %31
  br label %gc_remove_compressed.exit

gc_remove_compressed.exit:                        ; preds = %9, %gc_remove_compressed.exit.loopexit, %28
  %.sink17 = phi ptr [ %32, %28 ], [ %12, %9 ], [ %27, %gc_remove_compressed.exit.loopexit ]
  %33 = load i32, ptr getelementptr inbounds (%struct._zend_gc_globals, ptr @gc_globals, i64 0, i32 5), align 4
  %34 = zext i32 %33 to i64
  %35 = shl nuw nsw i64 %34, 3
  %36 = or disjoint i64 %35, 1
  %37 = inttoptr i64 %36 to ptr
  store ptr %37, ptr %.sink17, align 8
  %38 = load ptr, ptr @gc_globals, align 8
  %39 = ptrtoint ptr %.sink17 to i64
  %40 = ptrtoint ptr %38 to i64
  %41 = sub i64 %39, %40
  %storemerge11.in = lshr exact i64 %41, 3
  %storemerge11 = trunc i64 %storemerge11.in to i32
  store i32 %storemerge11, ptr getelementptr inbounds (%struct._zend_gc_globals, ptr @gc_globals, i64 0, i32 5), align 4
  %storemerge.in = load i32, ptr getelementptr inbounds (%struct._zend_gc_globals, ptr @gc_globals, i64 0, i32 9), align 4
  %storemerge = add i32 %storemerge.in, -1
  store i32 %storemerge, ptr getelementptr inbounds (%struct._zend_gc_globals, ptr @gc_globals, i64 0, i32 9), align 4
  ret void
}